target datalayout = "e-m:e-p270:32:32-p271:32:32-p272:64:64-i64:64-i128:128-f80:128-n8:16:32:64-S128"
target triple = "x86_64-pc-linux-gnu"

%struct.RBasic = type { i64, i64 }
%struct.RString = type { %struct.RBasic, i64, %union.anon.0 }
%union.anon.0 = type { %struct.anon.1 }
%struct.anon.1 = type { ptr, %union.anon.2 }
%union.anon.2 = type { i64 }
%struct.anon.3 = type { [1 x i8] }

; Function Attrs: inlinehint nounwind sspstrong willreturn memory(read) uwtable
define internal i64 @RB_FL_TEST_RAW(i64 noundef %0, i64 noundef %1) #8 {
  %3 = alloca i64, align 8
  %4 = alloca i64, align 8
  store i64 %0, ptr %3, align 8, !tbaa !7
  store i64 %1, ptr %4, align 8, !tbaa !7
  %5 = load i64, ptr %3, align 8, !tbaa !7
  %6 = inttoptr i64 %5 to ptr
  %7 = getelementptr inbounds nuw %struct.RBasic, ptr %6, i32 0, i32 0
  %8 = load i64, ptr %7, align 8, !tbaa !17
  %9 = load i64, ptr %4, align 8, !tbaa !7
  %10 = and i64 %8, %9
  ret i64 %10
}

; Function Attrs: inlinehint nounwind sspstrong willreturn memory(read) uwtable
define internal i64 @RSTRING_LEN(i64 noundef %0) #8 {
  %2 = alloca i64, align 8
  store i64 %0, ptr %2, align 8, !tbaa !7
  %3 = load i64, ptr %2, align 8, !tbaa !7
  %4 = inttoptr i64 %3 to ptr
  %5 = getelementptr inbounds nuw %struct.RString, ptr %4, i32 0, i32 1
  %6 = load i64, ptr %5, align 8, !tbaa !118
  ret i64 %6
}

; Function Attrs: inlinehint nounwind sspstrong willreturn memory(read) uwtable
define internal zeroext i1 @RB_FL_ANY_RAW(i64 noundef %0, i64 noundef %1) #8 {
  %3 = alloca i64, align 8
  %4 = alloca i64, align 8
  store i64 %0, ptr %3, align 8, !tbaa !7
  store i64 %1, ptr %4, align 8, !tbaa !7
  %5 = load i64, ptr %3, align 8, !tbaa !7
  %6 = load i64, ptr %4, align 8, !tbaa !7
  %7 = call i64 @RB_FL_TEST_RAW(i64 noundef %5, i64 noundef %6) #26
  %8 = icmp ne i64 %7, 0
  ret i1 %8
}

; Function Attrs: inlinehint nounwind sspstrong willreturn memory(none) uwtable
define internal zeroext i1 @RB_NIL_P(i64 noundef %0) #6 {
  %2 = alloca i64, align 8
  store i64 %0, ptr %2, align 8, !tbaa !7
  %3 = load i64, ptr %2, align 8, !tbaa !7
  %4 = icmp eq i64 %3, 4
  ret i1 %4
}

; Function Attrs: nounwind sspstrong uwtable
define internal i64 @rb_cstr_parse_inum(ptr noundef %0, i64 noundef %1, ptr noundef %2, i32 noundef %3) #0 {
  %5 = alloca ptr, align 8
  %6 = alloca i64, align 8
  %7 = alloca ptr, align 8
  %8 = alloca i32, align 4
  store ptr %0, ptr %5, align 8, !tbaa !87
  store i64 %1, ptr %6, align 8, !tbaa !7
  store ptr %2, ptr %7, align 8, !tbaa !101
  store i32 %3, ptr %8, align 4, !tbaa !19
  %9 = load ptr, ptr %5, align 8, !tbaa !87
  %10 = load i64, ptr %6, align 8, !tbaa !7
  %11 = load ptr, ptr %7, align 8, !tbaa !101
  %12 = load i32, ptr %8, align 4, !tbaa !19
  %13 = call i64 @rb_int_parse_cstr(ptr noundef %9, i64 noundef %10, ptr noundef %11, ptr noundef null, i32 noundef %12, i32 noundef 7)
  ret i64 %13
}

; Function Attrs: inlinehint nounwind sspstrong willreturn memory(read, argmem: readwrite) uwtable
define internal void @rbimpl_rstring_getmem(ptr dead_on_unwind noalias writable sret(%struct.RString) align 8 %0, i64 noundef %1) #12 {
  %3 = alloca i64, align 8
  store i64 %1, ptr %3, align 8, !tbaa !7
  %4 = load i64, ptr %3, align 8, !tbaa !7
  %5 = call zeroext i1 @RB_FL_ANY_RAW(i64 noundef %4, i64 noundef 8192) #26
  br i1 %5, label %6, label %9

6:                                                ; preds = %2
  %7 = load i64, ptr %3, align 8, !tbaa !7
  %8 = inttoptr i64 %7 to ptr
  call void @llvm.memcpy.p0.p0.i64(ptr align 8 %0, ptr align 8 %8, i64 40, i1 false), !tbaa.struct !120
  br label %20

9:                                                ; preds = %2
  %10 = load i64, ptr %3, align 8, !tbaa !7
  %11 = call i64 @RSTRING_LEN(i64 noundef %10) #26
  %12 = getelementptr inbounds nuw %struct.RString, ptr %0, i32 0, i32 1
  store i64 %11, ptr %12, align 8, !tbaa !118
  %13 = load i64, ptr %3, align 8, !tbaa !7
  %14 = inttoptr i64 %13 to ptr
  %15 = getelementptr inbounds nuw %struct.RString, ptr %14, i32 0, i32 2
  %16 = getelementptr inbounds nuw %struct.anon.3, ptr %15, i32 0, i32 0
  %17 = getelementptr inbounds [1 x i8], ptr %16, i64 0, i64 0
  %18 = getelementptr inbounds nuw %struct.RString, ptr %0, i32 0, i32 2
  %19 = getelementptr inbounds nuw %struct.anon.1, ptr %18, i32 0, i32 0
  store ptr %17, ptr %19, align 8, !tbaa !16
  br label %20

20:                                               ; preds = %9, %6
  ret void
}

; Function Attrs: nounwind sspstrong uwtable
define hidden i64 @rb_str_convert_to_inum(i64 noundef %0, i32 noundef %1, i32 noundef %2, i32 noundef %3) #0 {
  %5 = alloca i64, align 8
  %6 = alloca i64, align 8
  %7 = alloca i32, align 4
  %8 = alloca i32, align 4
  %9 = alloca i32, align 4
  %10 = alloca i64, align 8
  %11 = alloca ptr, align 8
  %12 = alloca i64, align 8
  %13 = alloca ptr, align 8
  %14 = alloca %struct.RString, align 8
  %15 = alloca i64, align 8
  %16 = alloca i32, align 4
  store i64 %0, ptr %6, align 8, !tbaa !7
  store i32 %1, ptr %7, align 4, !tbaa !19
  store i32 %2, ptr %8, align 4, !tbaa !19
  store i32 %3, ptr %9, align 4, !tbaa !19
  call void @llvm.lifetime.start.p0(i64 8, ptr %10) #24
  call void @llvm.lifetime.start.p0(i64 8, ptr %11) #24
  call void @llvm.lifetime.start.p0(i64 8, ptr %12) #24
  call void @llvm.lifetime.start.p0(i64 8, ptr %13) #24
  %17 = call i64 @rb_string_value(ptr noundef %6)
  %18 = load i64, ptr %6, align 8, !tbaa !7
  call void @rb_must_asciicompat(i64 noundef %18)
  call void @llvm.lifetime.start.p0(i64 40, ptr %14) #24
  %19 = load i64, ptr %6, align 8, !tbaa !7
  call void @rbimpl_rstring_getmem(ptr dead_on_unwind writable sret(%struct.RString) align 8 %14, i64 noundef %19) #32
  %20 = getelementptr inbounds nuw %struct.RString, ptr %14, i32 0, i32 2
  %21 = getelementptr inbounds nuw %struct.anon.1, ptr %20, i32 0, i32 0
  %22 = load ptr, ptr %21, align 8, !tbaa !16
  store ptr %22, ptr %11, align 8, !tbaa !87
  %23 = getelementptr inbounds nuw %struct.RString, ptr %14, i32 0, i32 1
  %24 = load i64, ptr %23, align 8, !tbaa !118
  store i64 %24, ptr %12, align 8, !tbaa !7
  store i64 %24, ptr %15, align 8, !tbaa !7
  call void @llvm.lifetime.end.p0(i64 40, ptr %14) #24
  %25 = load ptr, ptr %11, align 8, !tbaa !87
  %26 = load i64, ptr %12, align 8, !tbaa !7
  %27 = load i32, ptr %8, align 4, !tbaa !19
  %28 = icmp ne i32 %27, 0
  br i1 %28, label %29, label %30

29:                                               ; preds = %4
  br label %31

30:                                               ; preds = %4
  br label %31

31:                                               ; preds = %30, %29
  %32 = phi ptr [ null, %29 ], [ %13, %30 ]
  %33 = load i32, ptr %7, align 4, !tbaa !19
  %34 = call i64 @rb_cstr_parse_inum(ptr noundef %25, i64 noundef %26, ptr noundef %32, i32 noundef %33)
  store i64 %34, ptr %10, align 8, !tbaa !7
  %35 = load i64, ptr %10, align 8, !tbaa !7
  %36 = call zeroext i1 @RB_NIL_P(i64 noundef %35) #30
  br i1 %36, label %37, label %47

37:                                               ; preds = %31
  %38 = load i32, ptr %8, align 4, !tbaa !19
  %39 = icmp ne i32 %38, 0
  br i1 %39, label %40, label %46

40:                                               ; preds = %37
  %41 = load i32, ptr %9, align 4, !tbaa !19
  %42 = icmp ne i32 %41, 0
  br i1 %42, label %44, label %43

43:                                               ; preds = %40
  store i64 4, ptr %5, align 8
  store i32 1, ptr %16, align 4
  br label %49

44:                                               ; preds = %40
  %45 = load i64, ptr %6, align 8, !tbaa !7
  call void @invalid_integer(i64 noundef %45) #29
  unreachable

46:                                               ; preds = %37
  store i64 1, ptr %10, align 8, !tbaa !7
  br label %47

47:                                               ; preds = %46, %31
  %48 = load i64, ptr %10, align 8, !tbaa !7
  store i64 %48, ptr %5, align 8
  store i32 1, ptr %16, align 4
  br label %49

49:                                               ; preds = %47, %43
  call void @llvm.lifetime.end.p0(i64 8, ptr %13) #24
  call void @llvm.lifetime.end.p0(i64 8, ptr %12) #24
  call void @llvm.lifetime.end.p0(i64 8, ptr %11) #24
  call void @llvm.lifetime.end.p0(i64 8, ptr %10) #24
  %50 = load i64, ptr %5, align 8
  ret i64 %50
}