; Function Attrs: nounwind sspstrong uwtable
define hidden i64 @rb_str_convert_to_inum(i64 noundef %0, i32 noundef %1, i32 noundef %2, i32 noundef %3) local_unnamed_addr #0 {
  %5 = alloca i64, align 8
  %6 = alloca ptr, align 8
  store i64 %0, ptr %5, align 8, !tbaa !7
  call void @llvm.lifetime.start.p0(i64 8, ptr nonnull %6) #27
  %7 = call i64 @rb_string_value(ptr noundef nonnull %5) #27
  %8 = load i64, ptr %5, align 8, !tbaa !7
  call void @rb_must_asciicompat(i64 noundef %8) #27
  %9 = load i64, ptr %5, align 8, !tbaa !7
  %10 = inttoptr i64 %9 to ptr
  %11 = load i64, ptr %10, align 8, !tbaa !11, !noalias !125
  %12 = and i64 %11, 8192
  %.not.i = icmp eq i64 %12, 0
  %13 = getelementptr inbounds nuw i8, ptr %10, i64 24
  br i1 %.not.i, label %rbimpl_rstring_getmem.exit, label %14

14:                                               ; preds = %4
  %.sroa.5.0.copyload = load ptr, ptr %13, align 8
  br label %rbimpl_rstring_getmem.exit

rbimpl_rstring_getmem.exit:                       ; preds = %4, %14
  %.sroa.5.0 = phi ptr [ %.sroa.5.0.copyload, %14 ], [ %13, %4 ]
  %.sroa.3.0.in = getelementptr inbounds nuw i8, ptr %10, i64 16
  %.sroa.3.0 = load i64, ptr %.sroa.3.0.in, align 8, !tbaa !7
  %.not = icmp eq i32 %2, 0
  %. = select i1 %.not, ptr %6, ptr null
  %15 = call i64 @rb_int_parse_cstr(ptr noundef %.sroa.5.0, i64 noundef %.sroa.3.0, ptr noundef %., ptr noundef null, i32 noundef %1, i32 noundef 7)
  %16 = icmp ne i64 %15, 4
  %brmerge = or i1 %.not, %16
  %.mux = select i1 %16, i64 %15, i64 1
  br i1 %brmerge, label %20, label %17

17:                                               ; preds = %rbimpl_rstring_getmem.exit
  %.not9 = icmp eq i32 %3, 0
  br i1 %.not9, label %20, label %18

18:                                               ; preds = %17
  %19 = load i64, ptr %5, align 8, !tbaa !7
  call fastcc void @invalid_integer(i64 noundef %19) #32
  unreachable

20:                                               ; preds = %rbimpl_rstring_getmem.exit, %17
  %.0 = phi i64 [ 4, %17 ], [ %.mux, %rbimpl_rstring_getmem.exit ]
  call void @llvm.lifetime.end.p0(i64 8, ptr nonnull %6) #27
  ret i64 %.0
}